; ModuleID = '24/1578.c'
source_filename = "24/1578.c"
target datalayout = "e-m:e-p270:32:32-p271:32:32-p272:64:64-i64:64-f80:128-n8:16:32:64-S128"
target triple = "x86_64-pc-linux-gnu"

@.str = private unnamed_addr constant [5 x i8] c"%s%c\00", align 1
@.str.1 = private unnamed_addr constant [4 x i8] c"%s\0A\00", align 1

; Function Attrs: noinline nounwind uwtable
define dso_local i32 @main() #0 {
  %1 = alloca i32, align 4
  %2 = alloca [50 x i8], align 16
  %3 = alloca i8, align 1
  %4 = alloca [50 x i8], align 16
  %5 = alloca [50 x i8], align 16
  %6 = alloca i32, align 4
  %7 = alloca i32, align 4
  %8 = alloca i32, align 4
  %9 = alloca i32, align 4
  %10 = alloca i32, align 4
  %11 = alloca i32, align 4
  store i32 0, i32* %1, align 4
  store i32 1000, i32* %6, align 4
  store i32 0, i32* %7, align 4
  store i32 0, i32* %9, align 4
  br label %12

12:                                               ; preds = %0, %43
  %13 = getelementptr inbounds [50 x i8], [50 x i8]* %2, i64 0, i64 0
  %14 = call i32 (i8*, ...) @__isoc99_scanf(i8* getelementptr inbounds ([5 x i8], [5 x i8]* @.str, i64 0, i64 0), i8* %13, i8* %3)
  %15 = getelementptr inbounds [50 x i8], [50 x i8]* %2, i64 0, i64 0
  %16 = call i64 @strlen(i8* %15) #4
  %17 = trunc i64 %16 to i32
  store i32 %17, i32* %10, align 4
  %18 = load i32, i32* %10, align 4
  %19 = load i32, i32* %7, align 4
  %20 = icmp sgt i32 %18, %19
  br i1 %20, label %21, label %26

21:                                               ; preds = %12
  %22 = getelementptr inbounds [50 x i8], [50 x i8]* %5, i64 0, i64 0
  %23 = getelementptr inbounds [50 x i8], [50 x i8]* %2, i64 0, i64 0
  %24 = call i8* @strcpy(i8* %22, i8* %23) #5
  %25 = load i32, i32* %10, align 4
  store i32 %25, i32* %7, align 4
  br label %26

26:                                               ; preds = %21, %12
  %27 = load i32, i32* %10, align 4
  %28 = load i32, i32* %6, align 4
  %29 = icmp slt i32 %27, %28
  br i1 %29, label %30, label %38

30:                                               ; preds = %26
  %31 = load i32, i32* %10, align 4
  %32 = icmp sgt i32 %31, 0
  br i1 %32, label %33, label %38

33:                                               ; preds = %30
  %34 = getelementptr inbounds [50 x i8], [50 x i8]* %4, i64 0, i64 0
  %35 = getelementptr inbounds [50 x i8], [50 x i8]* %2, i64 0, i64 0
  %36 = call i8* @strcpy(i8* %34, i8* %35) #5
  %37 = load i32, i32* %10, align 4
  store i32 %37, i32* %6, align 4
  br label %38

38:                                               ; preds = %33, %30, %26
  %39 = load i8, i8* %3, align 1
  %40 = sext i8 %39 to i32
  %41 = icmp eq i32 %40, 10
  br i1 %41, label %42, label %43

42:                                               ; preds = %38
  br label %44

43:                                               ; preds = %38
  br label %12

44:                                               ; preds = %42
  %45 = getelementptr inbounds [50 x i8], [50 x i8]* %5, i64 0, i64 0
  %46 = call i32 (i8*, ...) @printf(i8* getelementptr inbounds ([4 x i8], [4 x i8]* @.str.1, i64 0, i64 0), i8* %45)
  %47 = getelementptr inbounds [50 x i8], [50 x i8]* %4, i64 0, i64 0
  %48 = call i32 (i8*, ...) @printf(i8* getelementptr inbounds ([4 x i8], [4 x i8]* @.str.1, i64 0, i64 0), i8* %47)
  ret i32 0
}

declare dso_local i32 @__isoc99_scanf(i8*, ...) #1

; Function Attrs: nounwind readonly
declare dso_local i64 @strlen(i8*) #2

; Function Attrs: nounwind
declare dso_local i8* @strcpy(i8*, i8*) #3

declare dso_local i32 @printf(i8*, ...) #1


!llvm.module.flags = !{!0}
!llvm.ident = !{!1}

!0 = !{i32 1, !"wchar_size", i32 4}
!1 = !{!"clang version 10.0.0-4ubuntu1 "}
