; ModuleID = 'source-C-CXX/23/1578.c'
source_filename = "source-C-CXX/23/1578.c"
target datalayout = "e-m:e-p270:32:32-p271:32:32-p272:64:64-i64:64-f80:128-n8:16:32:64-S128"
target triple = "x86_64-pc-linux-gnu"

@.str = private unnamed_addr constant [5 x i8] c"%s%c\00", align 1

; Function Attrs: nofree nounwind sspstrong uwtable
define dso_local i32 @main() local_unnamed_addr #0 {
  %1 = alloca [50 x i8], align 16
  %2 = alloca i8, align 1
  %3 = alloca [50 x i8], align 16
  %4 = alloca [50 x i8], align 16
  %5 = getelementptr inbounds [50 x i8], [50 x i8]* %1, i64 0, i64 0
  call void @llvm.lifetime.start.p0i8(i64 50, i8* nonnull %5) #6
  call void @llvm.lifetime.start.p0i8(i64 1, i8* nonnull %2) #6
  %6 = getelementptr inbounds [50 x i8], [50 x i8]* %3, i64 0, i64 0
  call void @llvm.lifetime.start.p0i8(i64 50, i8* nonnull %6) #6
  %7 = getelementptr inbounds [50 x i8], [50 x i8]* %4, i64 0, i64 0
  call void @llvm.lifetime.start.p0i8(i64 50, i8* nonnull %7) #6
  br label %8

8:                                                ; preds = %24, %0
  %9 = phi i32 [ 0, %0 ], [ %18, %24 ]
  %10 = phi i32 [ 1000, %0 ], [ %25, %24 ]
  %11 = call i32 (i8*, ...) @__isoc99_scanf(i8* getelementptr inbounds ([5 x i8], [5 x i8]* @.str, i64 0, i64 0), i8* nonnull %5, i8* nonnull %2)
  %12 = call i64 @strlen(i8* noundef nonnull %5) #7
  %13 = trunc i64 %12 to i32
  %14 = icmp slt i32 %9, %13
  br i1 %14, label %15, label %17

15:                                               ; preds = %8
  %16 = call i8* @strcpy(i8* noundef nonnull %7, i8* noundef nonnull %5) #6
  br label %17

17:                                               ; preds = %15, %8
  %18 = phi i32 [ %13, %15 ], [ %9, %8 ]
  %19 = icmp sgt i32 %10, %13
  %20 = icmp sgt i32 %13, 0
  %21 = and i1 %19, %20
  br i1 %21, label %22, label %24

22:                                               ; preds = %17
  %23 = call i8* @strcpy(i8* noundef nonnull %6, i8* noundef nonnull %5) #6
  br label %24

24:                                               ; preds = %22, %17
  %25 = phi i32 [ %13, %22 ], [ %10, %17 ]
  %26 = load i8, i8* %2, align 1, !tbaa !5
  %27 = icmp eq i8 %26, 10
  br i1 %27, label %28, label %8

28:                                               ; preds = %24
  %29 = call i32 @puts(i8* nonnull %7)
  %30 = call i32 @puts(i8* nonnull %6)
  call void @llvm.lifetime.end.p0i8(i64 50, i8* nonnull %7) #6
  call void @llvm.lifetime.end.p0i8(i64 50, i8* nonnull %6) #6
  call void @llvm.lifetime.end.p0i8(i64 1, i8* nonnull %2) #6
  call void @llvm.lifetime.end.p0i8(i64 50, i8* nonnull %5) #6
  ret i32 0
}

; Function Attrs: argmemonly mustprogress nofree nosync nounwind willreturn
declare void @llvm.lifetime.start.p0i8(i64 immarg, i8* nocapture) #1

; Function Attrs: nofree nounwind
declare noundef i32 @__isoc99_scanf(i8* nocapture noundef readonly, ...) local_unnamed_addr #2

; Function Attrs: argmemonly mustprogress nofree nounwind readonly willreturn
declare i64 @strlen(i8* nocapture) local_unnamed_addr #3

; Function Attrs: argmemonly mustprogress nofree nounwind willreturn
declare i8* @strcpy(i8* noalias returned writeonly, i8* noalias nocapture readonly) local_unnamed_addr #4

; Function Attrs: argmemonly mustprogress nofree nosync nounwind willreturn
declare void @llvm.lifetime.end.p0i8(i64 immarg, i8* nocapture) #1

; Function Attrs: nofree nounwind
declare noundef i32 @puts(i8* nocapture noundef readonly) local_unnamed_addr #5


!llvm.module.flags = !{!0, !1, !2, !3}
!llvm.ident = !{!4}

!0 = !{i32 1, !"wchar_size", i32 4}
!1 = !{i32 7, !"PIC Level", i32 2}
!2 = !{i32 7, !"PIE Level", i32 2}
!3 = !{i32 7, !"uwtable", i32 1}
!4 = !{!"clang version 13.0.0"}
!5 = !{!6, !6, i64 0}
!6 = !{!"omnipotent char", !7, i64 0}
!7 = !{!"Simple C/C++ TBAA"}
